target datalayout = "e-m:e-p270:32:32-p271:32:32-p272:64:64-i64:64-i128:128-f80:128-n8:16:32:64-S128"
target triple = "x86_64-pc-linux-gnu"

%struct._sapi_module_struct = type { ptr, ptr, ptr, ptr, ptr, ptr, ptr, ptr, ptr, ptr, ptr, ptr, ptr, ptr, ptr, ptr, ptr, ptr, ptr, ptr, ptr, ptr, ptr, ptr, i32, i32, ptr, ptr, ptr, ptr, ptr, ptr, i32, ptr, ptr, ptr }
%struct._zend_refcounted_h = type { i32, %union.anon }
%union.anon = type { i32 }
%struct._zval_struct = type { %union._zend_value, %union.anon.3, %union.anon.6 }
%union._zend_value = type { i64 }
%union.anon.3 = type { i32 }
%union.anon.6 = type { i32 }
%struct._zend_string = type { %struct._zend_refcounted_h, i64, i64, [1 x i8] }
%struct._zend_execute_data = type { ptr, ptr, ptr, ptr, %struct._zval_struct, ptr, ptr, ptr, ptr }

@sapi_module = external global %struct._sapi_module_struct, align 8

; Function Attrs: nounwind uwtable
define hidden void @zif_php_sapi_name(ptr noundef %0, ptr noundef %1) #0 {
  %3 = alloca ptr, align 8
  %4 = alloca i32, align 4
  %5 = alloca i64, align 8
  %6 = alloca i8, align 1
  %7 = alloca ptr, align 8
  %8 = alloca ptr, align 8
  %9 = alloca i64, align 8
  %10 = alloca i8, align 1
  %11 = alloca ptr, align 8
  %12 = alloca ptr, align 8
  %13 = alloca ptr, align 8
  %14 = alloca ptr, align 8
  %15 = alloca ptr, align 8
  %16 = alloca ptr, align 8
  store ptr %0, ptr %12, align 8
  store ptr %1, ptr %13, align 8
  br label %17

17:                                               ; preds = %2
  %18 = load ptr, ptr %12, align 8
  %19 = getelementptr inbounds %struct._zend_execute_data, ptr %18, i32 0, i32 4
  %20 = getelementptr inbounds %struct._zval_struct, ptr %19, i32 0, i32 2
  %21 = load i32, ptr %20, align 4
  %22 = icmp ne i32 %21, 0
  %23 = xor i1 %22, true
  %24 = xor i1 %23, true
  %25 = zext i1 %24 to i32
  %26 = sext i32 %25 to i64
  %27 = icmp ne i64 %26, 0
  br i1 %27, label %28, label %29

28:                                               ; preds = %17
  call void @zend_wrong_parameters_none_error()
  br label %503

29:                                               ; preds = %17
  br label %30

30:                                               ; preds = %29
  %31 = load ptr, ptr @sapi_module, align 8
  %32 = icmp ne ptr %31, null
  br i1 %32, label %33, label %496

33:                                               ; preds = %30
  br label %34

34:                                               ; preds = %33
  br label %35

35:                                               ; preds = %34
  %36 = load ptr, ptr @sapi_module, align 8
  store ptr %36, ptr %14, align 8
  br label %37

37:                                               ; preds = %35
  br label %38

38:                                               ; preds = %37
  %39 = load ptr, ptr %13, align 8
  store ptr %39, ptr %15, align 8
  %40 = load ptr, ptr %14, align 8
  %41 = load ptr, ptr %14, align 8
  %42 = call i64 @strlen(ptr noundef %41) #9
  store ptr %40, ptr %8, align 8
  store i64 %42, ptr %9, align 8
  store i8 0, ptr %10, align 1
  %43 = load i64, ptr %9, align 8
  %44 = load i8, ptr %10, align 1
  %45 = trunc i8 %44 to i1
  store i64 %43, ptr %5, align 8
  %46 = zext i1 %45 to i8
  store i8 %46, ptr %6, align 1
  %47 = load i8, ptr %6, align 1
  %48 = trunc i8 %47 to i1
  br i1 %48, label %49, label %57

49:                                               ; preds = %38
  %50 = load i64, ptr %5, align 8
  %51 = add i64 24, %50
  %52 = add i64 %51, 1
  %53 = add i64 %52, 8
  %54 = sub i64 %53, 1
  %55 = and i64 %54, -8
  %56 = call noalias ptr @__zend_malloc(i64 noundef %55) #11
  br label %461

57:                                               ; preds = %38
  %58 = load i64, ptr %5, align 8
  %59 = add i64 24, %58
  %60 = add i64 %59, 1
  %61 = add i64 %60, 8
  %62 = sub i64 %61, 1
  %63 = and i64 %62, -8
  %64 = call i1 @llvm.is.constant.i64(i64 %63)
  br i1 %64, label %65, label %451

65:                                               ; preds = %57
  %66 = load i64, ptr %5, align 8
  %67 = add i64 24, %66
  %68 = add i64 %67, 1
  %69 = add i64 %68, 8
  %70 = sub i64 %69, 1
  %71 = and i64 %70, -8
  %72 = icmp ule i64 %71, 8
  br i1 %72, label %73, label %75

73:                                               ; preds = %65
  %74 = call noalias ptr @_emalloc_8() #10
  br label %449

75:                                               ; preds = %65
  %76 = load i64, ptr %5, align 8
  %77 = add i64 24, %76
  %78 = add i64 %77, 1
  %79 = add i64 %78, 8
  %80 = sub i64 %79, 1
  %81 = and i64 %80, -8
  %82 = icmp ule i64 %81, 16
  br i1 %82, label %83, label %85

83:                                               ; preds = %75
  %84 = call noalias ptr @_emalloc_16() #10
  br label %447

85:                                               ; preds = %75
  %86 = load i64, ptr %5, align 8
  %87 = add i64 24, %86
  %88 = add i64 %87, 1
  %89 = add i64 %88, 8
  %90 = sub i64 %89, 1
  %91 = and i64 %90, -8
  %92 = icmp ule i64 %91, 24
  br i1 %92, label %93, label %95

93:                                               ; preds = %85
  %94 = call noalias ptr @_emalloc_24() #10
  br label %445

95:                                               ; preds = %85
  %96 = load i64, ptr %5, align 8
  %97 = add i64 24, %96
  %98 = add i64 %97, 1
  %99 = add i64 %98, 8
  %100 = sub i64 %99, 1
  %101 = and i64 %100, -8
  %102 = icmp ule i64 %101, 32
  br i1 %102, label %103, label %105

103:                                              ; preds = %95
  %104 = call noalias ptr @_emalloc_32() #10
  br label %443

105:                                              ; preds = %95
  %106 = load i64, ptr %5, align 8
  %107 = add i64 24, %106
  %108 = add i64 %107, 1
  %109 = add i64 %108, 8
  %110 = sub i64 %109, 1
  %111 = and i64 %110, -8
  %112 = icmp ule i64 %111, 40
  br i1 %112, label %113, label %115

113:                                              ; preds = %105
  %114 = call noalias ptr @_emalloc_40() #10
  br label %441

115:                                              ; preds = %105
  %116 = load i64, ptr %5, align 8
  %117 = add i64 24, %116
  %118 = add i64 %117, 1
  %119 = add i64 %118, 8
  %120 = sub i64 %119, 1
  %121 = and i64 %120, -8
  %122 = icmp ule i64 %121, 48
  br i1 %122, label %123, label %125

123:                                              ; preds = %115
  %124 = call noalias ptr @_emalloc_48() #10
  br label %439

125:                                              ; preds = %115
  %126 = load i64, ptr %5, align 8
  %127 = add i64 24, %126
  %128 = add i64 %127, 1
  %129 = add i64 %128, 8
  %130 = sub i64 %129, 1
  %131 = and i64 %130, -8
  %132 = icmp ule i64 %131, 56
  br i1 %132, label %133, label %135

133:                                              ; preds = %125
  %134 = call noalias ptr @_emalloc_56() #10
  br label %437

135:                                              ; preds = %125
  %136 = load i64, ptr %5, align 8
  %137 = add i64 24, %136
  %138 = add i64 %137, 1
  %139 = add i64 %138, 8
  %140 = sub i64 %139, 1
  %141 = and i64 %140, -8
  %142 = icmp ule i64 %141, 64
  br i1 %142, label %143, label %145

143:                                              ; preds = %135
  %144 = call noalias ptr @_emalloc_64() #10
  br label %435

145:                                              ; preds = %135
  %146 = load i64, ptr %5, align 8
  %147 = add i64 24, %146
  %148 = add i64 %147, 1
  %149 = add i64 %148, 8
  %150 = sub i64 %149, 1
  %151 = and i64 %150, -8
  %152 = icmp ule i64 %151, 80
  br i1 %152, label %153, label %155

153:                                              ; preds = %145
  %154 = call noalias ptr @_emalloc_80() #10
  br label %433

155:                                              ; preds = %145
  %156 = load i64, ptr %5, align 8
  %157 = add i64 24, %156
  %158 = add i64 %157, 1
  %159 = add i64 %158, 8
  %160 = sub i64 %159, 1
  %161 = and i64 %160, -8
  %162 = icmp ule i64 %161, 96
  br i1 %162, label %163, label %165

163:                                              ; preds = %155
  %164 = call noalias ptr @_emalloc_96() #10
  br label %431

165:                                              ; preds = %155
  %166 = load i64, ptr %5, align 8
  %167 = add i64 24, %166
  %168 = add i64 %167, 1
  %169 = add i64 %168, 8
  %170 = sub i64 %169, 1
  %171 = and i64 %170, -8
  %172 = icmp ule i64 %171, 112
  br i1 %172, label %173, label %175

173:                                              ; preds = %165
  %174 = call noalias ptr @_emalloc_112() #10
  br label %429

175:                                              ; preds = %165
  %176 = load i64, ptr %5, align 8
  %177 = add i64 24, %176
  %178 = add i64 %177, 1
  %179 = add i64 %178, 8
  %180 = sub i64 %179, 1
  %181 = and i64 %180, -8
  %182 = icmp ule i64 %181, 128
  br i1 %182, label %183, label %185

183:                                              ; preds = %175
  %184 = call noalias ptr @_emalloc_128() #10
  br label %427

185:                                              ; preds = %175
  %186 = load i64, ptr %5, align 8
  %187 = add i64 24, %186
  %188 = add i64 %187, 1
  %189 = add i64 %188, 8
  %190 = sub i64 %189, 1
  %191 = and i64 %190, -8
  %192 = icmp ule i64 %191, 160
  br i1 %192, label %193, label %195

193:                                              ; preds = %185
  %194 = call noalias ptr @_emalloc_160() #10
  br label %425

195:                                              ; preds = %185
  %196 = load i64, ptr %5, align 8
  %197 = add i64 24, %196
  %198 = add i64 %197, 1
  %199 = add i64 %198, 8
  %200 = sub i64 %199, 1
  %201 = and i64 %200, -8
  %202 = icmp ule i64 %201, 192
  br i1 %202, label %203, label %205

203:                                              ; preds = %195
  %204 = call noalias ptr @_emalloc_192() #10
  br label %423

205:                                              ; preds = %195
  %206 = load i64, ptr %5, align 8
  %207 = add i64 24, %206
  %208 = add i64 %207, 1
  %209 = add i64 %208, 8
  %210 = sub i64 %209, 1
  %211 = and i64 %210, -8
  %212 = icmp ule i64 %211, 224
  br i1 %212, label %213, label %215

213:                                              ; preds = %205
  %214 = call noalias ptr @_emalloc_224() #10
  br label %421

215:                                              ; preds = %205
  %216 = load i64, ptr %5, align 8
  %217 = add i64 24, %216
  %218 = add i64 %217, 1
  %219 = add i64 %218, 8
  %220 = sub i64 %219, 1
  %221 = and i64 %220, -8
  %222 = icmp ule i64 %221, 256
  br i1 %222, label %223, label %225

223:                                              ; preds = %215
  %224 = call noalias ptr @_emalloc_256() #10
  br label %419

225:                                              ; preds = %215
  %226 = load i64, ptr %5, align 8
  %227 = add i64 24, %226
  %228 = add i64 %227, 1
  %229 = add i64 %228, 8
  %230 = sub i64 %229, 1
  %231 = and i64 %230, -8
  %232 = icmp ule i64 %231, 320
  br i1 %232, label %233, label %235

233:                                              ; preds = %225
  %234 = call noalias ptr @_emalloc_320() #10
  br label %417

235:                                              ; preds = %225
  %236 = load i64, ptr %5, align 8
  %237 = add i64 24, %236
  %238 = add i64 %237, 1
  %239 = add i64 %238, 8
  %240 = sub i64 %239, 1
  %241 = and i64 %240, -8
  %242 = icmp ule i64 %241, 384
  br i1 %242, label %243, label %245

243:                                              ; preds = %235
  %244 = call noalias ptr @_emalloc_384() #10
  br label %415

245:                                              ; preds = %235
  %246 = load i64, ptr %5, align 8
  %247 = add i64 24, %246
  %248 = add i64 %247, 1
  %249 = add i64 %248, 8
  %250 = sub i64 %249, 1
  %251 = and i64 %250, -8
  %252 = icmp ule i64 %251, 448
  br i1 %252, label %253, label %255

253:                                              ; preds = %245
  %254 = call noalias ptr @_emalloc_448() #10
  br label %413

255:                                              ; preds = %245
  %256 = load i64, ptr %5, align 8
  %257 = add i64 24, %256
  %258 = add i64 %257, 1
  %259 = add i64 %258, 8
  %260 = sub i64 %259, 1
  %261 = and i64 %260, -8
  %262 = icmp ule i64 %261, 512
  br i1 %262, label %263, label %265

263:                                              ; preds = %255
  %264 = call noalias ptr @_emalloc_512() #10
  br label %411

265:                                              ; preds = %255
  %266 = load i64, ptr %5, align 8
  %267 = add i64 24, %266
  %268 = add i64 %267, 1
  %269 = add i64 %268, 8
  %270 = sub i64 %269, 1
  %271 = and i64 %270, -8
  %272 = icmp ule i64 %271, 640
  br i1 %272, label %273, label %275

273:                                              ; preds = %265
  %274 = call noalias ptr @_emalloc_640() #10
  br label %409

275:                                              ; preds = %265
  %276 = load i64, ptr %5, align 8
  %277 = add i64 24, %276
  %278 = add i64 %277, 1
  %279 = add i64 %278, 8
  %280 = sub i64 %279, 1
  %281 = and i64 %280, -8
  %282 = icmp ule i64 %281, 768
  br i1 %282, label %283, label %285

283:                                              ; preds = %275
  %284 = call noalias ptr @_emalloc_768() #10
  br label %407

285:                                              ; preds = %275
  %286 = load i64, ptr %5, align 8
  %287 = add i64 24, %286
  %288 = add i64 %287, 1
  %289 = add i64 %288, 8
  %290 = sub i64 %289, 1
  %291 = and i64 %290, -8
  %292 = icmp ule i64 %291, 896
  br i1 %292, label %293, label %295

293:                                              ; preds = %285
  %294 = call noalias ptr @_emalloc_896() #10
  br label %405

295:                                              ; preds = %285
  %296 = load i64, ptr %5, align 8
  %297 = add i64 24, %296
  %298 = add i64 %297, 1
  %299 = add i64 %298, 8
  %300 = sub i64 %299, 1
  %301 = and i64 %300, -8
  %302 = icmp ule i64 %301, 1024
  br i1 %302, label %303, label %305

303:                                              ; preds = %295
  %304 = call noalias ptr @_emalloc_1024() #10
  br label %403

305:                                              ; preds = %295
  %306 = load i64, ptr %5, align 8
  %307 = add i64 24, %306
  %308 = add i64 %307, 1
  %309 = add i64 %308, 8
  %310 = sub i64 %309, 1
  %311 = and i64 %310, -8
  %312 = icmp ule i64 %311, 1280
  br i1 %312, label %313, label %315

313:                                              ; preds = %305
  %314 = call noalias ptr @_emalloc_1280() #10
  br label %401

315:                                              ; preds = %305
  %316 = load i64, ptr %5, align 8
  %317 = add i64 24, %316
  %318 = add i64 %317, 1
  %319 = add i64 %318, 8
  %320 = sub i64 %319, 1
  %321 = and i64 %320, -8
  %322 = icmp ule i64 %321, 1536
  br i1 %322, label %323, label %325

323:                                              ; preds = %315
  %324 = call noalias ptr @_emalloc_1536() #10
  br label %399

325:                                              ; preds = %315
  %326 = load i64, ptr %5, align 8
  %327 = add i64 24, %326
  %328 = add i64 %327, 1
  %329 = add i64 %328, 8
  %330 = sub i64 %329, 1
  %331 = and i64 %330, -8
  %332 = icmp ule i64 %331, 1792
  br i1 %332, label %333, label %335

333:                                              ; preds = %325
  %334 = call noalias ptr @_emalloc_1792() #10
  br label %397

335:                                              ; preds = %325
  %336 = load i64, ptr %5, align 8
  %337 = add i64 24, %336
  %338 = add i64 %337, 1
  %339 = add i64 %338, 8
  %340 = sub i64 %339, 1
  %341 = and i64 %340, -8
  %342 = icmp ule i64 %341, 2048
  br i1 %342, label %343, label %345

343:                                              ; preds = %335
  %344 = call noalias ptr @_emalloc_2048() #10
  br label %395

345:                                              ; preds = %335
  %346 = load i64, ptr %5, align 8
  %347 = add i64 24, %346
  %348 = add i64 %347, 1
  %349 = add i64 %348, 8
  %350 = sub i64 %349, 1
  %351 = and i64 %350, -8
  %352 = icmp ule i64 %351, 2560
  br i1 %352, label %353, label %355

353:                                              ; preds = %345
  %354 = call noalias ptr @_emalloc_2560() #10
  br label %393

355:                                              ; preds = %345
  %356 = load i64, ptr %5, align 8
  %357 = add i64 24, %356
  %358 = add i64 %357, 1
  %359 = add i64 %358, 8
  %360 = sub i64 %359, 1
  %361 = and i64 %360, -8
  %362 = icmp ule i64 %361, 3072
  br i1 %362, label %363, label %365

363:                                              ; preds = %355
  %364 = call noalias ptr @_emalloc_3072() #10
  br label %391

365:                                              ; preds = %355
  %366 = load i64, ptr %5, align 8
  %367 = add i64 24, %366
  %368 = add i64 %367, 1
  %369 = add i64 %368, 8
  %370 = sub i64 %369, 1
  %371 = and i64 %370, -8
  %372 = icmp ule i64 %371, 2093056
  br i1 %372, label %373, label %381

373:                                              ; preds = %365
  %374 = load i64, ptr %5, align 8
  %375 = add i64 24, %374
  %376 = add i64 %375, 1
  %377 = add i64 %376, 8
  %378 = sub i64 %377, 1
  %379 = and i64 %378, -8
  %380 = call noalias ptr @_emalloc_large(i64 noundef %379) #11
  br label %389

381:                                              ; preds = %365
  %382 = load i64, ptr %5, align 8
  %383 = add i64 24, %382
  %384 = add i64 %383, 1
  %385 = add i64 %384, 8
  %386 = sub i64 %385, 1
  %387 = and i64 %386, -8
  %388 = call noalias ptr @_emalloc_huge(i64 noundef %387) #11
  br label %389

389:                                              ; preds = %381, %373
  %390 = phi ptr [ %380, %373 ], [ %388, %381 ]
  br label %391

391:                                              ; preds = %389, %363
  %392 = phi ptr [ %364, %363 ], [ %390, %389 ]
  br label %393

393:                                              ; preds = %391, %353
  %394 = phi ptr [ %354, %353 ], [ %392, %391 ]
  br label %395

395:                                              ; preds = %393, %343
  %396 = phi ptr [ %344, %343 ], [ %394, %393 ]
  br label %397

397:                                              ; preds = %395, %333
  %398 = phi ptr [ %334, %333 ], [ %396, %395 ]
  br label %399

399:                                              ; preds = %397, %323
  %400 = phi ptr [ %324, %323 ], [ %398, %397 ]
  br label %401

401:                                              ; preds = %399, %313
  %402 = phi ptr [ %314, %313 ], [ %400, %399 ]
  br label %403

403:                                              ; preds = %401, %303
  %404 = phi ptr [ %304, %303 ], [ %402, %401 ]
  br label %405

405:                                              ; preds = %403, %293
  %406 = phi ptr [ %294, %293 ], [ %404, %403 ]
  br label %407

407:                                              ; preds = %405, %283
  %408 = phi ptr [ %284, %283 ], [ %406, %405 ]
  br label %409

409:                                              ; preds = %407, %273
  %410 = phi ptr [ %274, %273 ], [ %408, %407 ]
  br label %411

411:                                              ; preds = %409, %263
  %412 = phi ptr [ %264, %263 ], [ %410, %409 ]
  br label %413

413:                                              ; preds = %411, %253
  %414 = phi ptr [ %254, %253 ], [ %412, %411 ]
  br label %415

415:                                              ; preds = %413, %243
  %416 = phi ptr [ %244, %243 ], [ %414, %413 ]
  br label %417

417:                                              ; preds = %415, %233
  %418 = phi ptr [ %234, %233 ], [ %416, %415 ]
  br label %419

419:                                              ; preds = %417, %223
  %420 = phi ptr [ %224, %223 ], [ %418, %417 ]
  br label %421

421:                                              ; preds = %419, %213
  %422 = phi ptr [ %214, %213 ], [ %420, %419 ]
  br label %423

423:                                              ; preds = %421, %203
  %424 = phi ptr [ %204, %203 ], [ %422, %421 ]
  br label %425

425:                                              ; preds = %423, %193
  %426 = phi ptr [ %194, %193 ], [ %424, %423 ]
  br label %427

427:                                              ; preds = %425, %183
  %428 = phi ptr [ %184, %183 ], [ %426, %425 ]
  br label %429

429:                                              ; preds = %427, %173
  %430 = phi ptr [ %174, %173 ], [ %428, %427 ]
  br label %431

431:                                              ; preds = %429, %163
  %432 = phi ptr [ %164, %163 ], [ %430, %429 ]
  br label %433

433:                                              ; preds = %431, %153
  %434 = phi ptr [ %154, %153 ], [ %432, %431 ]
  br label %435

435:                                              ; preds = %433, %143
  %436 = phi ptr [ %144, %143 ], [ %434, %433 ]
  br label %437

437:                                              ; preds = %435, %133
  %438 = phi ptr [ %134, %133 ], [ %436, %435 ]
  br label %439

439:                                              ; preds = %437, %123
  %440 = phi ptr [ %124, %123 ], [ %438, %437 ]
  br label %441

441:                                              ; preds = %439, %113
  %442 = phi ptr [ %114, %113 ], [ %440, %439 ]
  br label %443

443:                                              ; preds = %441, %103
  %444 = phi ptr [ %104, %103 ], [ %442, %441 ]
  br label %445

445:                                              ; preds = %443, %93
  %446 = phi ptr [ %94, %93 ], [ %444, %443 ]
  br label %447

447:                                              ; preds = %445, %83
  %448 = phi ptr [ %84, %83 ], [ %446, %445 ]
  br label %449

449:                                              ; preds = %447, %73
  %450 = phi ptr [ %74, %73 ], [ %448, %447 ]
  br label %459

451:                                              ; preds = %57
  %452 = load i64, ptr %5, align 8
  %453 = add i64 24, %452
  %454 = add i64 %453, 1
  %455 = add i64 %454, 8
  %456 = sub i64 %455, 1
  %457 = and i64 %456, -8
  %458 = call noalias ptr @_emalloc(i64 noundef %457) #11
  br label %459

459:                                              ; preds = %451, %449
  %460 = phi ptr [ %450, %449 ], [ %458, %451 ]
  br label %461

461:                                              ; preds = %459, %49
  %462 = phi ptr [ %56, %49 ], [ %460, %459 ]
  store ptr %462, ptr %7, align 8
  %463 = load ptr, ptr %7, align 8
  store ptr %463, ptr %3, align 8
  store i32 1, ptr %4, align 4
  %464 = load i32, ptr %4, align 4
  %465 = load ptr, ptr %3, align 8
  store i32 %464, ptr %465, align 4
  %466 = load i8, ptr %6, align 1
  %467 = trunc i8 %466 to i1
  %468 = select i1 %467, i32 128, i32 0
  %469 = or i32 22, %468
  %470 = load ptr, ptr %7, align 8
  %471 = getelementptr inbounds %struct._zend_refcounted_h, ptr %470, i32 0, i32 1
  store i32 %469, ptr %471, align 4
  %472 = load ptr, ptr %7, align 8
  %473 = getelementptr inbounds %struct._zend_string, ptr %472, i32 0, i32 1
  store i64 0, ptr %473, align 8
  %474 = load i64, ptr %5, align 8
  %475 = load ptr, ptr %7, align 8
  %476 = getelementptr inbounds %struct._zend_string, ptr %475, i32 0, i32 2
  store i64 %474, ptr %476, align 8
  %477 = load ptr, ptr %7, align 8
  store ptr %477, ptr %11, align 8
  %478 = load ptr, ptr %11, align 8
  %479 = getelementptr inbounds %struct._zend_string, ptr %478, i32 0, i32 3
  %480 = load ptr, ptr %8, align 8
  %481 = load i64, ptr %9, align 8
  call void @llvm.memcpy.p0.p0.i64(ptr align 8 %479, ptr align 1 %480, i64 %481, i1 false)
  %482 = load ptr, ptr %11, align 8
  %483 = getelementptr inbounds %struct._zend_string, ptr %482, i32 0, i32 3
  %484 = load i64, ptr %9, align 8
  %485 = getelementptr inbounds [1 x i8], ptr %483, i64 0, i64 %484
  store i8 0, ptr %485, align 1
  %486 = load ptr, ptr %11, align 8
  store ptr %486, ptr %16, align 8
  %487 = load ptr, ptr %16, align 8
  %488 = load ptr, ptr %15, align 8
  %489 = getelementptr inbounds %struct._zval_struct, ptr %488, i32 0, i32 0
  store ptr %487, ptr %489, align 8
  %490 = load ptr, ptr %15, align 8
  %491 = getelementptr inbounds %struct._zval_struct, ptr %490, i32 0, i32 1
  store i32 262, ptr %491, align 8
  br label %492

492:                                              ; preds = %461
  br label %493

493:                                              ; preds = %492
  br label %494

494:                                              ; preds = %493
  br label %503

495:                                              ; No predecessors!
  br label %503

496:                                              ; preds = %30
  br label %497

497:                                              ; preds = %496
  br label %498

498:                                              ; preds = %497
  %499 = load ptr, ptr %13, align 8
  %500 = getelementptr inbounds %struct._zval_struct, ptr %499, i32 0, i32 1
  store i32 2, ptr %500, align 8
  br label %501

501:                                              ; preds = %498
  br label %503

502:                                              ; No predecessors!
  br label %503

503:                                              ; preds = %502, %501, %495, %494, %28
  ret void
}